target datalayout = "e-m:e-p270:32:32-p271:32:32-p272:64:64-i64:64-i128:128-f80:128-n8:16:32:64-S128"
target triple = "x86_64-pc-linux-gnu"

%struct.expert_field = type { i32, i32 }

@hf_ansi_a_cell_ci = internal global i32 0, align 4
@hf_ansi_a_cell_lac = internal global i32 0, align 4
@hf_ansi_a_cell_mscid = internal global i32 0, align 4
@ei_ansi_a_unknown_format = internal global %struct.expert_field zeroinitializer, align 4
@.str.1142 = private unnamed_addr constant [11 x i8] c" - CI (%u)\00", align 1
@.str.1143 = private unnamed_addr constant [12 x i8] c" - LAC (%u)\00", align 1
@.str.1144 = private unnamed_addr constant [31 x i8] c"Market ID %u  Switch Number %u\00", align 1
@.str.1145 = private unnamed_addr constant [45 x i8] c" - Market ID (%u) Switch Number (%u) CI (%u)\00", align 1
@.str.1146 = private unnamed_addr constant [25 x i8] c"Cell ID - Non IOS format\00", align 1

; Function Attrs: null_pointer_is_valid sspstrong uwtable
define internal zeroext i8 @elem_cell_id_aux(ptr noundef %0, ptr noundef %1, ptr noundef %2, i32 noundef %3, i32 noundef %4, i8 noundef zeroext %5, ptr noundef %6) #1 {
  %8 = alloca ptr, align 8
  %9 = alloca ptr, align 8
  %10 = alloca ptr, align 8
  %11 = alloca i32, align 4
  %12 = alloca i32, align 4
  %13 = alloca i8, align 1
  %14 = alloca ptr, align 8
  %15 = alloca i32, align 4
  %16 = alloca i32, align 4
  %17 = alloca i32, align 4
  %18 = alloca i32, align 4
  store ptr %0, ptr %8, align 8
  store ptr %1, ptr %9, align 8
  store ptr %2, ptr %10, align 8
  store i32 %3, ptr %11, align 4
  store i32 %4, ptr %12, align 4
  store i8 %5, ptr %13, align 1
  store ptr %6, ptr %14, align 8
  call void @llvm.lifetime.start.p0(i64 4, ptr %15) #8
  call void @llvm.lifetime.start.p0(i64 4, ptr %16) #8
  call void @llvm.lifetime.start.p0(i64 4, ptr %17) #8
  call void @llvm.lifetime.start.p0(i64 4, ptr %18) #8
  %19 = load i32, ptr %11, align 4
  store i32 %19, ptr %18, align 4
  %20 = load i8, ptr %13, align 1
  %21 = zext i8 %20 to i32
  switch i32 %21, label %103 [
    i32 2, label %22
    i32 5, label %41
    i32 7, label %60
  ]

22:                                               ; preds = %7
  %23 = load ptr, ptr %8, align 8
  %24 = load i32, ptr %18, align 4
  %25 = call zeroext i16 @tvb_get_ntohs(ptr noundef %23, i32 noundef %24)
  %26 = zext i16 %25 to i32
  store i32 %26, ptr %15, align 4
  %27 = load ptr, ptr %10, align 8
  %28 = load i32, ptr @hf_ansi_a_cell_ci, align 4
  %29 = load ptr, ptr %8, align 8
  %30 = load i32, ptr %18, align 4
  %31 = load i32, ptr %15, align 4
  %32 = call ptr @proto_tree_add_uint(ptr noundef %27, i32 noundef %28, ptr noundef %29, i32 noundef %30, i32 noundef 2, i32 noundef %31)
  %33 = load i32, ptr %18, align 4
  %34 = add i32 %33, 2
  store i32 %34, ptr %18, align 4
  %35 = load ptr, ptr %14, align 8
  %36 = icmp ne ptr %35, null
  br i1 %36, label %37, label %40

37:                                               ; preds = %22
  %38 = load ptr, ptr %14, align 8
  %39 = load i32, ptr %15, align 4
  call void (ptr, ptr, ...) @proto_item_append_text(ptr noundef %38, ptr noundef @.str.1142, i32 noundef %39)
  br label %40

40:                                               ; preds = %37, %22
  br label %113

41:                                               ; preds = %7
  %42 = load ptr, ptr %8, align 8
  %43 = load i32, ptr %18, align 4
  %44 = call zeroext i16 @tvb_get_ntohs(ptr noundef %42, i32 noundef %43)
  %45 = zext i16 %44 to i32
  store i32 %45, ptr %15, align 4
  %46 = load ptr, ptr %10, align 8
  %47 = load i32, ptr @hf_ansi_a_cell_lac, align 4
  %48 = load ptr, ptr %8, align 8
  %49 = load i32, ptr %18, align 4
  %50 = load i32, ptr %15, align 4
  %51 = call ptr @proto_tree_add_uint(ptr noundef %46, i32 noundef %47, ptr noundef %48, i32 noundef %49, i32 noundef 2, i32 noundef %50)
  %52 = load i32, ptr %18, align 4
  %53 = add i32 %52, 2
  store i32 %53, ptr %18, align 4
  %54 = load ptr, ptr %14, align 8
  %55 = icmp ne ptr %54, null
  br i1 %55, label %56, label %59

56:                                               ; preds = %41
  %57 = load ptr, ptr %14, align 8
  %58 = load i32, ptr %15, align 4
  call void (ptr, ptr, ...) @proto_item_append_text(ptr noundef %57, ptr noundef @.str.1143, i32 noundef %58)
  br label %59

59:                                               ; preds = %56, %41
  br label %113

60:                                               ; preds = %7
  %61 = load ptr, ptr %8, align 8
  %62 = load i32, ptr %18, align 4
  %63 = call zeroext i16 @tvb_get_ntohs(ptr noundef %61, i32 noundef %62)
  %64 = zext i16 %63 to i32
  store i32 %64, ptr %16, align 4
  %65 = load ptr, ptr %8, align 8
  %66 = load i32, ptr %18, align 4
  %67 = add i32 %66, 2
  %68 = call zeroext i8 @tvb_get_uint8(ptr noundef %65, i32 noundef %67)
  %69 = zext i8 %68 to i32
  store i32 %69, ptr %17, align 4
  %70 = load ptr, ptr %8, align 8
  %71 = load i32, ptr %18, align 4
  %72 = call i32 @tvb_get_ntoh24(ptr noundef %70, i32 noundef %71)
  store i32 %72, ptr %15, align 4
  %73 = load ptr, ptr %10, align 8
  %74 = load i32, ptr @hf_ansi_a_cell_mscid, align 4
  %75 = load ptr, ptr %8, align 8
  %76 = load i32, ptr %18, align 4
  %77 = load i32, ptr %15, align 4
  %78 = load i32, ptr %16, align 4
  %79 = load i32, ptr %17, align 4
  %80 = call ptr (ptr, i32, ptr, i32, i32, i32, ptr, ...) @proto_tree_add_uint_format(ptr noundef %73, i32 noundef %74, ptr noundef %75, i32 noundef %76, i32 noundef 3, i32 noundef %77, ptr noundef @.str.1144, i32 noundef %78, i32 noundef %79)
  %81 = load i32, ptr %18, align 4
  %82 = add i32 %81, 3
  store i32 %82, ptr %18, align 4
  %83 = load ptr, ptr %8, align 8
  %84 = load i32, ptr %18, align 4
  %85 = call zeroext i16 @tvb_get_ntohs(ptr noundef %83, i32 noundef %84)
  %86 = zext i16 %85 to i32
  store i32 %86, ptr %15, align 4
  %87 = load ptr, ptr %10, align 8
  %88 = load i32, ptr @hf_ansi_a_cell_ci, align 4
  %89 = load ptr, ptr %8, align 8
  %90 = load i32, ptr %18, align 4
  %91 = load i32, ptr %15, align 4
  %92 = call ptr @proto_tree_add_uint(ptr noundef %87, i32 noundef %88, ptr noundef %89, i32 noundef %90, i32 noundef 2, i32 noundef %91)
  %93 = load i32, ptr %18, align 4
  %94 = add i32 %93, 2
  store i32 %94, ptr %18, align 4
  %95 = load ptr, ptr %14, align 8
  %96 = icmp ne ptr %95, null
  br i1 %96, label %97, label %102

97:                                               ; preds = %60
  %98 = load ptr, ptr %14, align 8
  %99 = load i32, ptr %16, align 4
  %100 = load i32, ptr %17, align 4
  %101 = load i32, ptr %15, align 4
  call void (ptr, ptr, ...) @proto_item_append_text(ptr noundef %98, ptr noundef @.str.1145, i32 noundef %99, i32 noundef %100, i32 noundef %101)
  br label %102

102:                                              ; preds = %97, %60
  br label %113

103:                                              ; preds = %7
  %104 = load ptr, ptr %10, align 8
  %105 = load ptr, ptr %9, align 8
  %106 = load ptr, ptr %8, align 8
  %107 = load i32, ptr %18, align 4
  %108 = load i32, ptr %12, align 4
  %109 = call ptr (ptr, ptr, ptr, ptr, i32, i32, ptr, ...) @proto_tree_add_expert_format(ptr noundef %104, ptr noundef %105, ptr noundef @ei_ansi_a_unknown_format, ptr noundef %106, i32 noundef %107, i32 noundef %108, ptr noundef @.str.1146)
  %110 = load i32, ptr %12, align 4
  %111 = load i32, ptr %18, align 4
  %112 = add i32 %111, %110
  store i32 %112, ptr %18, align 4
  br label %113

113:                                              ; preds = %103, %102, %59, %40
  %114 = load i32, ptr %18, align 4
  %115 = load i32, ptr %11, align 4
  %116 = sub i32 %114, %115
  %117 = trunc i32 %116 to i8
  call void @llvm.lifetime.end.p0(i64 4, ptr %18) #8
  call void @llvm.lifetime.end.p0(i64 4, ptr %17) #8
  call void @llvm.lifetime.end.p0(i64 4, ptr %16) #8
  call void @llvm.lifetime.end.p0(i64 4, ptr %15) #8
  ret i8 %117
}