; Function Attrs: null_pointer_is_valid sspstrong uwtable
define internal fastcc noundef zeroext i8 @elem_cell_id_aux(ptr noundef %0, ptr noundef %1, ptr noundef %2, i32 noundef %3, i32 noundef %4, i8 noundef zeroext %5, ptr noundef %6) unnamed_addr #1 {
  switch i8 %5, label %35 [
    i8 2, label %8
    i8 5, label %14
    i8 7, label %20
  ]

8:                                                ; preds = %7
  %9 = tail call zeroext i16 @tvb_get_ntohs(ptr noundef %0, i32 noundef %3)
  %10 = zext i16 %9 to i32
  %11 = load i32, ptr @hf_ansi_a_cell_ci, align 4
  %12 = tail call ptr @proto_tree_add_uint(ptr noundef %2, i32 noundef %11, ptr noundef %0, i32 noundef %3, i32 noundef 2, i32 noundef %10)
  %.not57 = icmp eq ptr %6, null
  br i1 %.not57, label %38, label %13

13:                                               ; preds = %8
  tail call void (ptr, ptr, ...) @proto_item_append_text(ptr noundef nonnull %6, ptr noundef nonnull @.str.1142, i32 noundef %10)
  br label %38

14:                                               ; preds = %7
  %15 = tail call zeroext i16 @tvb_get_ntohs(ptr noundef %0, i32 noundef %3)
  %16 = zext i16 %15 to i32
  %17 = load i32, ptr @hf_ansi_a_cell_lac, align 4
  %18 = tail call ptr @proto_tree_add_uint(ptr noundef %2, i32 noundef %17, ptr noundef %0, i32 noundef %3, i32 noundef 2, i32 noundef %16)
  %.not56 = icmp eq ptr %6, null
  br i1 %.not56, label %38, label %19

19:                                               ; preds = %14
  tail call void (ptr, ptr, ...) @proto_item_append_text(ptr noundef nonnull %6, ptr noundef nonnull @.str.1143, i32 noundef %16)
  br label %38

20:                                               ; preds = %7
  %21 = tail call zeroext i16 @tvb_get_ntohs(ptr noundef %0, i32 noundef %3)
  %22 = zext i16 %21 to i32
  %23 = add i32 %3, 2
  %24 = tail call zeroext i8 @tvb_get_uint8(ptr noundef %0, i32 noundef %23)
  %25 = zext i8 %24 to i32
  %26 = tail call i32 @tvb_get_ntoh24(ptr noundef %0, i32 noundef %3)
  %27 = load i32, ptr @hf_ansi_a_cell_mscid, align 4
  %28 = tail call ptr (ptr, i32, ptr, i32, i32, i32, ptr, ...) @proto_tree_add_uint_format(ptr noundef %2, i32 noundef %27, ptr noundef %0, i32 noundef %3, i32 noundef 3, i32 noundef %26, ptr noundef nonnull @.str.1144, i32 noundef %22, i32 noundef %25)
  %29 = add i32 %3, 3
  %30 = tail call zeroext i16 @tvb_get_ntohs(ptr noundef %0, i32 noundef %29)
  %31 = zext i16 %30 to i32
  %32 = load i32, ptr @hf_ansi_a_cell_ci, align 4
  %33 = tail call ptr @proto_tree_add_uint(ptr noundef %2, i32 noundef %32, ptr noundef %0, i32 noundef %29, i32 noundef 2, i32 noundef %31)
  %.not = icmp eq ptr %6, null
  br i1 %.not, label %38, label %34

34:                                               ; preds = %20
  tail call void (ptr, ptr, ...) @proto_item_append_text(ptr noundef nonnull %6, ptr noundef nonnull @.str.1145, i32 noundef %22, i32 noundef %25, i32 noundef %31)
  br label %38

35:                                               ; preds = %7
  %36 = tail call ptr (ptr, ptr, ptr, ptr, i32, i32, ptr, ...) @proto_tree_add_expert_format(ptr noundef %2, ptr noundef %1, ptr noundef nonnull @ei_ansi_a_unknown_format, ptr noundef %0, i32 noundef %3, i32 noundef %4, ptr noundef nonnull @.str.1146)
  %37 = trunc i32 %4 to i8
  br label %38

38:                                               ; preds = %20, %34, %14, %19, %8, %13, %35
  %.pn = phi i8 [ %37, %35 ], [ 5, %34 ], [ 5, %20 ], [ 2, %19 ], [ 2, %14 ], [ 2, %13 ], [ 2, %8 ]
  ret i8 %.pn
}